Certificate:
    Data:
        Version: 1 (0x0)
        Serial Number: 1048576 (0x100000)
        Signature Algorithm: sha512WithRSAEncryption
        Issuer: CN=Symphony Bot Signing Certificate, O=Symphony Software Foundation/emailAddress=maoo@symphony.foundation, L=PA, ST=CA, C=US
        Validity
            Not Before: Sep 22 17:37:11 2016 GMT
            Not After : Sep 20 17:37:11 2026 GMT
        Subject: C=US, ST=CA, O=Symphony Software Foundation, CN=project.hubot-symphony
        Subject Public Key Info:
            Public Key Algorithm: rsaEncryption
            RSA Public Key: (4096 bit)
                Modulus (4096 bit):
                    00:d9:42:5d:9b:03:5a:a8:c9:4d:b2:12:ed:3b:f4:
                    24:1f:43:bd:1a:7f:3a:1f:46:a9:da:66:2f:a9:e9:
                    aa:c7:e3:c5:d3:a0:b2:db:6d:0f:62:93:34:e1:e0:
                    67:70:f5:2b:f6:65:8b:a5:da:77:95:6e:f0:47:99:
                    f1:6a:05:ed:90:36:29:4c:31:9b:4b:6d:f7:c7:54:
                    bc:94:be:a1:e4:b1:ae:a0:46:12:4d:f6:b3:87:a5:
                    38:fc:24:cf:66:77:87:13:ce:f4:d8:c2:57:20:45:
                    7c:e2:26:5b:cd:8d:b0:63:18:a8:45:46:73:74:66:
                    1f:64:49:2a:01:8c:86:78:65:e4:45:69:ac:42:a6:
                    1e:11:b4:ab:9b:db:d6:de:38:5f:c0:f3:b6:8b:4e:
                    5f:34:26:82:bf:b2:a9:d0:c6:92:da:ee:54:26:9f:
                    55:88:33:58:e4:7d:5e:79:56:53:3c:9d:84:b2:61:
                    75:88:44:bc:30:b8:eb:f4:11:aa:d2:66:87:0e:b3:
                    b8:ed:91:7f:e4:26:52:31:23:e7:91:e8:95:b6:2e:
                    7c:6f:b0:2a:67:25:de:78:79:3f:77:5a:2d:26:d0:
                    1f:a3:8d:15:72:23:25:10:ec:33:9b:49:71:2a:44:
                    ce:02:f0:69:e6:97:cf:13:cc:09:24:70:6d:a9:c1:
                    9c:ac:e8:ab:11:7a:9b:cc:d2:7e:e6:14:ce:52:7f:
                    70:62:63:40:65:a2:3b:74:53:9e:cf:71:9f:32:67:
                    ce:f6:e5:fb:99:4c:49:2d:4c:c8:25:5b:e9:56:c7:
                    32:24:9f:a7:b3:07:fd:b1:e8:c9:63:29:a5:b4:b2:
                    22:ba:b6:39:0f:f7:d9:89:f6:03:0e:3d:a5:71:53:
                    2e:3a:83:6d:9e:09:5c:ac:74:ee:62:cb:26:a3:c1:
                    80:70:29:6e:8e:9e:ff:31:6d:58:62:2a:2b:7d:b0:
                    a0:cc:15:ea:d7:43:45:18:a8:02:0f:9d:d1:41:e5:
                    44:0b:3a:dd:95:c4:db:0f:4d:cd:5f:79:6a:00:15:
                    6a:b7:b5:13:a2:7e:cc:78:3c:a8:7b:4b:a0:0a:44:
                    7d:d1:b6:3c:91:51:ba:2e:ab:a1:02:be:83:d8:7c:
                    80:6c:c1:b2:05:71:28:0b:72:40:55:fb:92:59:4b:
                    7b:b8:8f:12:7f:b3:4f:a4:31:17:e7:75:cf:0f:21:
                    80:b7:7a:27:5f:5a:fc:2f:b3:e2:e6:94:2b:56:98:
                    ea:e7:a4:77:6c:a0:b3:dc:a6:6b:c6:84:31:92:c9:
                    75:20:2f:bc:72:57:f9:d9:1e:ee:38:46:d0:b4:c1:
                    87:c3:7b:64:02:41:0a:bf:e7:94:cb:b0:0a:39:ba:
                    c6:76:23
                Exponent: 65537 (0x10001)
    Signature Algorithm: sha512WithRSAEncryption
        68:58:da:c8:ca:85:8b:c9:83:43:7d:9e:58:7b:1b:05:0e:86:
        e3:37:5c:5c:6d:79:47:fc:cb:38:a5:ce:ac:74:33:fd:ce:84:
        4f:1d:de:e0:23:f3:a5:67:1f:23:76:97:7e:ac:11:8d:96:89:
        15:19:b9:5b:f3:21:23:b3:a5:b8:1c:c6:52:20:0b:7b:ed:86:
        d0:06:ca:89:0c:df:6b:78:56:60:ba:cf:36:26:96:7e:fe:6a:
        fd:6e:3b:5c:7d:e8:16:c3:6d:74:db:bf:8f:c7:bc:72:23:24:
        04:55:ae:89:96:24:4f:87:59:e9:9b:c6:7a:5d:f5:3e:56:1a:
        07:79:f3:d9:c8:7e:99:28:4a:cb:da:fb:c6:73:ba:dc:16:33:
        29:86:96:fb:8d:1f:07:8a:2e:14:8c:63:88:36:57:aa:23:1e:
        3a:6e:c2:b0:6a:cb:96:6c:91:4f:91:0c:7c:27:fd:cd:4a:36:
        f5:24:a0:78:57:dc:fa:05:3a:66:29:58:c5:4c:4b:9c:ff:c2:
        26:33:cd:cc:9d:c0:59:6e:76:b3:be:d2:87:59:47:7a:3e:19:
        00:c8:59:2f:a7:2d:ac:f4:77:46:57:21:aa:0c:d6:b0:d6:de:
        f4:8c:da:bf:fd:e3:c1:78:22:92:54:69:c0:b5:1e:a3:32:ca:
        07:51:be:8d:3f:6b:aa:ed:3d:d1:7f:3e:72:10:f6:e6:78:a9:
        63:72:50:aa:ee:de:52:80:bc:03:74:b8:bd:c9:99:d9:98:03:
        78:b2:e5:f8:4f:e3:50:ae:4c:a8:2f:73:2d:70:15:95:a2:2a:
        8c:09:93:82:2a:58:f6:a5:3e:89:47:44:a9:03:e6:96:e8:d2:
        fc:88:3b:3a:e2:36:14:64:82:69:df:df:35:4f:f7:64:b2:27:
        74:a4:a7:71:60:6d:c7:91:78:fd:cf:13:9f:91:b7:d1:5e:6d:
        00:d6:82:f7:4d:32:ec:c5:36:05:14:15:ed:31:02:1d:e9:ad:
        98:b4:9f:e6:23:95:35:b4:53:d5:d6:8b:ae:36:c1:ac:c2:1c:
        9a:02:ea:86:4a:d9:71:f8:bb:66:38:19:24:8f:7f:8f:0f:d1:
        86:99:aa:5d:19:7f:c2:00:61:e3:38:a9:ba:2f:51:a6:c9:fc:
        33:be:26:69:2f:0f:9d:ae:cc:0c:82:b8:b1:4f:da:e8:3f:c9:
        e5:0f:52:c8:14:d4:ee:b2:13:88:84:a9:4c:10:8a:c0:3b:d9:
        c7:45:12:13:43:51:57:79:27:65:e8:01:47:51:2c:e1:88:cb:
        63:65:0a:55:2c:2b:8a:62:44:fa:e9:11:d5:c0:27:1e:9d:49:
        9b:b5:1a:7d:a9:2d:be:95
-----BEGIN CERTIFICATE-----
MIIFezCCA2MCAxAAADANBgkqhkiG9w0BAQ0FADCBojEpMCcGA1UEAxMgU3ltcGhv
bnkgQm90IFNpZ25pbmcgQ2VydGlmaWNhdGUxJTAjBgNVBAoTHFN5bXBob255IFNv
ZnR3YXJlIEZvdW5kYXRpb24xJzAlBgkqhkiG9w0BCQEWGG1hb29Ac3ltcGhvbnku
Zm91bmRhdGlvbjELMAkGA1UEBxMCUEExCzAJBgNVBAgTAkNBMQswCQYDVQQGEwJV
UzAeFw0xNjA5MjIxNzM3MTFaFw0yNjA5MjAxNzM3MTFaMGIxCzAJBgNVBAYTAlVT
MQswCQYDVQQIEwJDQTElMCMGA1UEChMcU3ltcGhvbnkgU29mdHdhcmUgRm91bmRh
dGlvbjEfMB0GA1UEAxMWcHJvamVjdC5odWJvdC1zeW1waG9ueTCCAiIwDQYJKoZI
hvcNAQEBBQADggIPADCCAgoCggIBANlCXZsDWqjJTbIS7Tv0JB9DvRp/Oh9Gqdpm
L6npqsfjxdOgstttD2KTNOHgZ3D1K/Zli6Xad5Vu8EeZ8WoF7ZA2KUwxm0tt98dU
vJS+oeSxrqBGEk32s4elOPwkz2Z3hxPO9NjCVyBFfOImW82NsGMYqEVGc3RmH2RJ
KgGMhnhl5EVprEKmHhG0q5vb1t44X8DztotOXzQmgr+yqdDGktruVCafVYgzWOR9
XnlWUzydhLJhdYhEvDC46/QRqtJmhw6zuO2Rf+QmUjEj55HolbYufG+wKmcl3nh5
P3daLSbQH6ONFXIjJRDsM5tJcSpEzgLwaeaXzxPMCSRwbanBnKzoqxF6m8zSfuYU
zlJ/cGJjQGWiO3RTns9xnzJnzvbl+5lMSS1MyCVb6VbHMiSfp7MH/bHoyWMppbSy
Irq2OQ/32Yn2Aw49pXFTLjqDbZ4JXKx07mLLJqPBgHApbo6e/zFtWGIqK32woMwV
6tdDRRioAg+d0UHlRAs63ZXE2w9NzV95agAVare1E6J+zHg8qHtLoApEfdG2PJFR
ui6roQK+g9h8gGzBsgVxKAtyQFX7kllLe7iPEn+zT6QxF+d1zw8hgLd6J19a/C+z
4uaUK1aY6uekd2ygs9yma8aEMZLJdSAvvHJX+dke7jhG0LTBh8N7ZAJBCr/nlMuw
Cjm6xnYjAgMBAAEwDQYJKoZIhvcNAQENBQADggIBAGhY2sjKhYvJg0N9nlh7GwUO
huM3XFxteUf8yzilzqx0M/3OhE8d3uAj86VnHyN2l36sEY2WiRUZuVvzISOzpbgc
xlIgC3vthtAGyokM32t4VmC6zzYmln7+av1uO1x96BbDbXTbv4/HvHIjJARVromW
JE+HWembxnpd9T5WGgd589nIfpkoSsva+8ZzutwWMymGlvuNHweKLhSMY4g2V6oj
HjpuwrBqy5ZskU+RDHwn/c1KNvUkoHhX3PoFOmYpWMVMS5z/wiYzzcydwFludrO+
0odZR3o+GQDIWS+nLaz0d0ZXIaoM1rDW3vSM2r/948F4IpJUacC1HqMyygdRvo0/
a6rtPdF/PnIQ9uZ4qWNyUKru3lKAvAN0uL3JmdmYA3iy5fhP41CuTKgvcy1wFZWi
KowJk4IqWPalPolHRKkD5pbo0vyIOzriNhRkgmnf3zVP92SyJ3Skp3FgbceReP3P
E5+Rt9FebQDWgvdNMuzFNgUUFe0xAh3prZi0n+YjlTW0U9XWi642wazCHJoC6oZK
2XH4u2Y4GSSPf48P0YaZql0Zf8IAYeM4qbovUabJ/DO+JmkvD52uzAyCuLFP2ug/
yeUPUsgU1O6yE4iEqUwQisA72cdFEhNDUVd5J2XoAUdRLOGIy2NlClUsK4piRPrp
EdXAJx6dSZu1Gn2pLb6V
-----END CERTIFICATE-----
