Certificate:
    Data:
        Version: 1 (0x0)
        Serial Number: 1048580 (0x100004)
        Signature Algorithm: sha512WithRSAEncryption
        Issuer: CN=foundation-test.symphony.com, O=Symphony Software Foundation/emailAddress=info@symphony.foundation, L=PA, ST=CA, C=US
        Validity
            Not Before: Sep 14 20:57:17 2016 GMT
            Not After : Sep 12 20:57:17 2026 GMT
        Subject: C=US, ST=CA, O=Symphony Software Foundation, CN=testbot
        Subject Public Key Info:
            Public Key Algorithm: rsaEncryption
            RSA Public Key: (4096 bit)
                Modulus (4096 bit):
                    00:95:dc:ea:04:04:fe:13:7a:5b:94:d5:ad:27:ed:
                    9e:39:64:a3:f5:12:cd:0f:a0:15:72:2a:95:f9:af:
                    56:62:92:36:00:4a:49:79:c0:b5:6d:3c:35:0a:ef:
                    0c:e6:22:4a:67:94:db:fa:3c:67:e2:93:b1:c3:66:
                    70:76:3a:1f:6c:79:34:3e:d8:9e:ab:a8:11:a7:be:
                    0e:f0:8f:7d:b6:b9:61:8d:10:6b:89:3b:4c:27:a1:
                    12:41:17:c6:53:37:4e:a4:bc:4f:50:c2:40:dd:ee:
                    a5:a5:89:70:7b:0e:fb:32:11:72:8c:7d:79:3a:9a:
                    69:10:f2:42:f0:5b:b6:7a:70:3d:86:1b:ff:ab:d7:
                    26:ca:c4:98:ab:fd:21:db:3c:0a:ae:7a:1b:6f:89:
                    d3:30:a5:38:b4:ab:15:d2:82:e2:85:cd:12:f7:4c:
                    92:d2:92:39:63:58:71:b8:68:32:00:ad:29:4d:fe:
                    a4:a5:51:b7:22:07:a3:ca:8f:ea:fe:ae:7f:0e:0d:
                    d1:6b:95:b6:76:65:0e:f1:4f:17:b4:ed:db:0b:36:
                    88:4a:5c:14:ee:43:5e:02:48:d3:f0:99:7d:e5:a6:
                    cc:71:b3:9e:69:eb:a3:ae:14:cc:a4:64:a0:3b:e7:
                    83:b7:36:85:d0:5d:d6:3f:39:25:2b:0d:5e:65:d1:
                    7e:63:1e:de:0b:7e:85:cf:8a:5d:b5:0e:8c:c3:b8:
                    fa:ad:3d:06:28:d1:d6:40:15:54:4d:d4:46:d2:8a:
                    70:ac:84:59:a8:dc:1f:02:44:15:b6:42:12:75:d6:
                    d8:34:d9:fb:17:fc:cd:14:f2:e4:3a:3b:45:7f:55:
                    ea:6e:28:b3:98:09:8d:f2:7f:75:0c:2a:c3:83:45:
                    e1:0a:cb:71:9e:ac:af:b3:c8:81:a3:70:99:d3:fb:
                    0a:93:62:22:bc:5f:7c:db:b4:0d:3d:4d:8f:66:ce:
                    b7:a7:77:92:11:41:3c:e0:6e:7f:e1:0a:49:0e:71:
                    d8:1f:61:75:fd:29:04:43:62:7c:6a:9a:40:11:9b:
                    25:79:36:de:16:7a:6c:e5:dd:76:0a:20:dd:5c:70:
                    75:48:17:af:7d:66:59:dc:26:3b:71:67:5e:08:58:
                    fc:f8:3a:1a:da:14:5c:c6:ae:d5:4f:87:db:f7:86:
                    93:7e:3b:f5:fc:3f:61:2f:ae:20:dc:44:a8:6f:dc:
                    7b:88:00:4a:14:aa:84:79:96:d5:fb:43:47:a6:94:
                    87:fa:47:d1:b7:74:82:cc:5c:2b:75:30:85:13:6d:
                    ed:4e:07:31:90:d9:a9:d8:9c:66:5d:c2:95:6b:cf:
                    fc:14:7f:1c:42:78:c7:8c:73:e5:42:cb:46:6a:bc:
                    3f:e1:53
                Exponent: 65537 (0x10001)
    Signature Algorithm: sha512WithRSAEncryption
        3d:3e:12:60:c5:77:7d:ca:ad:77:fe:d0:0f:d0:45:bd:6e:16:
        02:6a:dc:12:03:91:a9:7f:bf:91:c3:b8:b8:c4:7c:b9:b7:0a:
        ac:06:a9:fd:41:a4:80:2a:fc:78:5c:3f:75:99:eb:94:dd:ab:
        9e:d2:71:f3:29:ef:18:9a:65:88:7e:23:da:28:ed:db:59:02:
        0b:96:3b:f7:f8:bb:0b:d7:8a:a6:4e:11:21:14:6f:fc:c7:2d:
        7b:7a:8a:ce:09:12:f5:be:b3:2b:a1:07:49:e6:0a:84:90:cb:
        0a:2c:95:6d:37:81:50:fc:60:9f:91:1e:b7:0e:b0:d5:52:5d:
        0f:66:31:49:d3:df:cd:40:78:2b:b2:37:51:c0:a9:2c:da:88:
        78:ba:7f:6c:ef:c4:b5:5e:3e:c5:ff:c4:b8:79:f2:cb:f0:6f:
        ee:32:8c:91:cb:48:18:ce:6d:8a:0a:ef:8b:de:86:d9:34:0a:
        37:2a:44:87:f1:c7:9e:70:a9:2a:cd:dd:43:d3:1f:2b:6e:1d:
        9b:9c:da:63:75:ca:91:ff:03:2b:05:ea:0c:64:1a:94:9a:4b:
        12:9f:e9:d0:93:b0:3e:e3:2b:76:9b:9b:fb:b3:54:e8:23:01:
        72:17:7c:0a:28:b4:91:d6:24:c1:db:ca:22:61:18:60:29:e2:
        79:70:25:96:b8:c9:de:f4:57:0d:0d:82:17:97:78:ff:32:77:
        af:cb:71:8a:78:36:ee:1d:f2:3c:2a:54:be:af:44:32:a8:68:
        8c:b8:b1:23:a3:25:76:d6:95:d7:13:55:e5:1d:f4:2e:cf:3c:
        eb:c9:2a:90:9c:9c:71:c3:b4:7d:ff:41:41:0f:48:ad:97:bc:
        0d:45:a2:26:a8:06:72:28:11:7b:9c:e8:0e:a7:56:de:cb:56:
        97:54:d6:2c:6c:5a:2d:1b:90:f5:a1:93:5c:d2:b9:99:29:21:
        55:22:bd:2e:9d:44:38:b4:4d:11:4f:f2:30:19:3c:a8:e9:b4:
        3d:99:ad:1f:5f:4a:3e:bc:f1:f1:d6:4b:82:a1:10:d4:ac:fa:
        e4:b7:64:58:7e:fc:b0:56:76:33:84:38:39:cb:19:a0:4c:34:
        c3:c8:04:60:ec:a0:53:da:c5:c1:2f:09:c7:5a:a1:1f:d3:e7:
        f2:28:e1:30:57:25:cd:f1:92:d8:7a:eb:00:d8:34:9a:b2:7f:
        90:80:5b:ed:b1:64:99:d4:09:6e:3b:db:61:4a:d2:9d:19:a0:
        7f:54:3c:43:bd:ae:aa:b0:25:23:5f:56:e4:4e:d4:f1:3a:83:
        c7:18:5c:e2:df:fb:c6:90:ea:62:5d:18:52:9c:d3:d8:b6:cc:
        81:a1:9d:1e:98:66:63:b1
-----BEGIN CERTIFICATE-----
MIIFaDCCA1ACAxAABDANBgkqhkiG9w0BAQ0FADCBnjElMCMGA1UEAxMcZm91bmRh
dGlvbi10ZXN0LnN5bXBob255LmNvbTElMCMGA1UEChMcU3ltcGhvbnkgU29mdHdh
cmUgRm91bmRhdGlvbjEnMCUGCSqGSIb3DQEJARYYaW5mb0BzeW1waG9ueS5mb3Vu
ZGF0aW9uMQswCQYDVQQHEwJQQTELMAkGA1UECBMCQ0ExCzAJBgNVBAYTAlVTMB4X
DTE2MDkxNDIwNTcxN1oXDTI2MDkxMjIwNTcxN1owUzELMAkGA1UEBhMCVVMxCzAJ
BgNVBAgTAkNBMSUwIwYDVQQKExxTeW1waG9ueSBTb2Z0d2FyZSBGb3VuZGF0aW9u
MRAwDgYDVQQDEwd0ZXN0Ym90MIICIjANBgkqhkiG9w0BAQEFAAOCAg8AMIICCgKC
AgEAldzqBAT+E3pblNWtJ+2eOWSj9RLND6AVciqV+a9WYpI2AEpJecC1bTw1Cu8M
5iJKZ5Tb+jxn4pOxw2ZwdjofbHk0Ptieq6gRp74O8I99trlhjRBriTtMJ6ESQRfG
UzdOpLxPUMJA3e6lpYlwew77MhFyjH15OpppEPJC8Fu2enA9hhv/q9cmysSYq/0h
2zwKrnobb4nTMKU4tKsV0oLihc0S90yS0pI5Y1hxuGgyAK0pTf6kpVG3Igejyo/q
/q5/Dg3Ra5W2dmUO8U8XtO3bCzaISlwU7kNeAkjT8Jl95abMcbOeaeujrhTMpGSg
O+eDtzaF0F3WPzklKw1eZdF+Yx7eC36Fz4pdtQ6Mw7j6rT0GKNHWQBVUTdRG0opw
rIRZqNwfAkQVtkISddbYNNn7F/zNFPLkOjtFf1XqbiizmAmN8n91DCrDg0XhCstx
nqyvs8iBo3CZ0/sKk2IivF9827QNPU2PZs63p3eSEUE84G5/4QpJDnHYH2F1/SkE
Q2J8appAEZsleTbeFnps5d12CiDdXHB1SBevfWZZ3CY7cWdeCFj8+Doa2hRcxq7V
T4fb94aTfjv1/D9hL64g3ESob9x7iABKFKqEeZbV+0NHppSH+kfRt3SCzFwrdTCF
E23tTgcxkNmp2JxmXcKVa8/8FH8cQnjHjHPlQstGarw/4VMCAwEAATANBgkqhkiG
9w0BAQ0FAAOCAgEAPT4SYMV3fcqtd/7QD9BFvW4WAmrcEgORqX+/kcO4uMR8ubcK
rAap/UGkgCr8eFw/dZnrlN2rntJx8ynvGJpliH4j2ijt21kCC5Y79/i7C9eKpk4R
IRRv/Mcte3qKzgkS9b6zK6EHSeYKhJDLCiyVbTeBUPxgn5Eetw6w1VJdD2YxSdPf
zUB4K7I3UcCpLNqIeLp/bO/EtV4+xf/EuHnyy/Bv7jKMkctIGM5tigrvi96G2TQK
NypEh/HHnnCpKs3dQ9MfK24dm5zaY3XKkf8DKwXqDGQalJpLEp/p0JOwPuMrdpub
+7NU6CMBchd8Cii0kdYkwdvKImEYYCnieXAllrjJ3vRXDQ2CF5d4/zJ3r8txing2
7h3yPCpUvq9EMqhojLixI6MldtaV1xNV5R30Ls8868kqkJycccO0ff9BQQ9IrZe8
DUWiJqgGcigRe5zoDqdW3stWl1TWLGxaLRuQ9aGTXNK5mSkhVSK9Lp1EOLRNEU/y
MBk8qOm0PZmtH19KPrzx8dZLgqEQ1Kz65LdkWH78sFZ2M4Q4OcsZoEw0w8gEYOyg
U9rFwS8Jx1qhH9Pn8ijhMFclzfGS2HrrANg0mrJ/kIBb7bFkmdQJbjvbYUrSnRmg
f1Q8Q72uqrAlI19W5E7U8TqDxxhc4t/7xpDqYl0YUpzT2LbMgaGdHphmY7E=
-----END CERTIFICATE-----
